; Function Attrs: mustprogress nofree norecurse nosync nounwind memory(argmem: readwrite) uwtable
define void @_ZN6icu_775units6Factor10multiplyByERKS1_(ptr noundef nonnull align 8 captures(none) dereferenceable(88) %0, ptr noundef nonnull readonly align 8 captures(none) dereferenceable(88) %1) local_unnamed_addr #10 align 2 {
  %3 = load double, ptr %1, align 8, !tbaa !15
  %4 = load double, ptr %0, align 8, !tbaa !15
  %5 = fmul double %3, %4
  store double %5, ptr %0, align 8, !tbaa !15
  %6 = getelementptr inbounds nuw i8, ptr %1, i64 8
  %7 = load double, ptr %6, align 8, !tbaa !19
  %8 = getelementptr inbounds nuw i8, ptr %0, i64 8
  %9 = load double, ptr %8, align 8, !tbaa !19
  %10 = fmul double %7, %9
  store double %10, ptr %8, align 8, !tbaa !19
  %11 = getelementptr inbounds nuw i8, ptr %1, i64 28
  %12 = getelementptr inbounds nuw i8, ptr %0, i64 28
  br label %20

13:                                               ; preds = %20
  %14 = getelementptr inbounds nuw i8, ptr %1, i64 16
  %15 = getelementptr inbounds nuw i8, ptr %0, i64 16
  %16 = load double, ptr %14, align 8, !tbaa !20
  %17 = load double, ptr %15, align 8, !tbaa !20
  %18 = fcmp olt double %16, %17
  %19 = select i1 %18, double %17, double %16
  store double %19, ptr %15, align 8, !tbaa !21
  ret void

20:                                               ; preds = %2, %20
  %indvars.iv = phi i64 [ 0, %2 ], [ %indvars.iv.next, %20 ]
  %21 = getelementptr inbounds nuw [15 x i32], ptr %11, i64 0, i64 %indvars.iv
  %22 = load i32, ptr %21, align 4, !tbaa !12
  %23 = getelementptr inbounds nuw [15 x i32], ptr %12, i64 0, i64 %indvars.iv
  %24 = load i32, ptr %23, align 4, !tbaa !12
  %25 = add nsw i32 %24, %22
  store i32 %25, ptr %23, align 4, !tbaa !12
  %indvars.iv.next = add nuw nsw i64 %indvars.iv, 1
  %exitcond.not = icmp eq i64 %indvars.iv.next, 15
  br i1 %exitcond.not, label %13, label %20, !llvm.loop !22
}